target datalayout = "e-m:e-p270:32:32-p271:32:32-p272:64:64-i64:64-i128:128-f80:128-n8:16:32:64-S128"
target triple = "x86_64-pc-linux-gnu"

%struct.lua_State = type { %struct.GCRef, i8, i8, i8, i8, %struct.MRef, %struct.GCRef, ptr, ptr, %struct.MRef, %struct.MRef, %struct.GCRef, %struct.GCRef, ptr, i32 }
%struct.MRef = type { i64 }
%struct.GCRef = type { i64 }
%union.TValue = type { i64 }
%struct.SBufExt = type { ptr, ptr, ptr, %struct.MRef, %union.anon.2, ptr, %struct.GCRef, %struct.GCRef, i32 }
%union.anon.2 = type { %struct.GCRef }
%struct.GCstr = type { %struct.GCRef, i8, i8, i8, i8, i32, i32, i32 }
%struct.GCudata = type { %struct.GCRef, i8, i8, i8, i8, %struct.GCRef, i32, %struct.GCRef, i32 }
%struct.global_State = type { ptr, ptr, %struct.GCState, %struct.GCstr, i8, i8, i8, i8, %struct.StrInternState, i32, %struct.GCRef, %struct.SBuf, %union.TValue, %union.TValue, %struct.Node, %union.TValue, %struct.GCupval, i32, i32, ptr, ptr, ptr, i32, i32, %struct.GCRef, %struct.MRef, %struct.MRef, %struct.PRNGState, [39 x %struct.GCRef] }
%struct.GCState = type { i64, i64, i8, i8, i8, i8, i32, %struct.GCRef, %struct.MRef, %struct.GCRef, %struct.GCRef, %struct.GCRef, %struct.GCRef, i64, i64, i32, i32, %struct.MRef }
%struct.StrInternState = type { ptr, i32, i32, i32, i8, i8, i8, i8, i64 }
%struct.SBuf = type { ptr, ptr, ptr, %struct.MRef }
%struct.Node = type { %union.TValue, %union.TValue, %struct.MRef }
%struct.GCupval = type { %struct.GCRef, i8, i8, i8, i8, %union.anon, %struct.MRef, i32 }
%union.anon = type { %struct.anon.1 }
%struct.anon.1 = type { %struct.GCRef, %struct.GCRef }
%struct.PRNGState = type { [4 x i64] }

@.str.2 = private unnamed_addr constant [7 x i8] c"buffer\00", align 1
@.str.3 = private unnamed_addr constant [25 x i8] c"string/number/__tostring\00", align 1
@.str.4 = private unnamed_addr constant [23 x i8] c"copy of dead GC object\00", align 1

; Function Attrs: alwaysinline nounwind uwtable
define internal void @checklivetv(ptr noundef %0, ptr noundef %1, ptr noundef %2) #3 {
  %4 = alloca ptr, align 8
  %5 = alloca ptr, align 8
  %6 = alloca ptr, align 8
  store ptr %0, ptr %4, align 8, !tbaa !4
  store ptr %1, ptr %5, align 8, !tbaa !38
  store ptr %2, ptr %6, align 8, !tbaa !31
  ret void
}

; Function Attrs: nounwind uwtable
define internal ptr @buffer_tobuf(ptr noundef %0) #0 {
  %2 = alloca ptr, align 8
  store ptr %0, ptr %2, align 8, !tbaa !4
  %3 = load ptr, ptr %2, align 8, !tbaa !4
  %4 = getelementptr inbounds nuw %struct.lua_State, ptr %3, i32 0, i32 7
  %5 = load ptr, ptr %4, align 8, !tbaa !11
  %6 = load ptr, ptr %2, align 8, !tbaa !4
  %7 = getelementptr inbounds nuw %struct.lua_State, ptr %6, i32 0, i32 8
  %8 = load ptr, ptr %7, align 8, !tbaa !18
  %9 = icmp ult ptr %5, %8
  br i1 %9, label %10, label %30

10:                                               ; preds = %1
  %11 = load ptr, ptr %2, align 8, !tbaa !4
  %12 = getelementptr inbounds nuw %struct.lua_State, ptr %11, i32 0, i32 7
  %13 = load ptr, ptr %12, align 8, !tbaa !11
  %14 = load i64, ptr %13, align 8, !tbaa !26
  %15 = ashr i64 %14, 47
  %16 = trunc i64 %15 to i32
  %17 = icmp eq i32 %16, -13
  br i1 %17, label %18, label %30

18:                                               ; preds = %10
  %19 = load ptr, ptr %2, align 8, !tbaa !4
  %20 = getelementptr inbounds nuw %struct.lua_State, ptr %19, i32 0, i32 7
  %21 = load ptr, ptr %20, align 8, !tbaa !11
  %22 = getelementptr inbounds nuw %struct.GCRef, ptr %21, i32 0, i32 0
  %23 = load i64, ptr %22, align 8, !tbaa !26
  %24 = and i64 %23, 140737488355327
  %25 = inttoptr i64 %24 to ptr
  %26 = getelementptr inbounds nuw %struct.GCudata, ptr %25, i32 0, i32 3
  %27 = load i8, ptr %26, align 2, !tbaa !26
  %28 = zext i8 %27 to i32
  %29 = icmp eq i32 %28, 3
  br i1 %29, label %32, label %30

30:                                               ; preds = %18, %10, %1
  %31 = load ptr, ptr %2, align 8, !tbaa !4
  call void @lj_err_argtype(ptr noundef %31, i32 noundef 1, ptr noundef @.str.2) #9
  unreachable

32:                                               ; preds = %18
  %33 = load ptr, ptr %2, align 8, !tbaa !4
  %34 = getelementptr inbounds nuw %struct.lua_State, ptr %33, i32 0, i32 7
  %35 = load ptr, ptr %34, align 8, !tbaa !11
  %36 = getelementptr inbounds nuw %struct.GCRef, ptr %35, i32 0, i32 0
  %37 = load i64, ptr %36, align 8, !tbaa !26
  %38 = and i64 %37, 140737488355327
  %39 = inttoptr i64 %38 to ptr
  %40 = getelementptr inbounds %struct.GCudata, ptr %39, i64 1
  ret ptr %40
}

; Function Attrs: alwaysinline nounwind uwtable
define internal void @copyTV(ptr noundef %0, ptr noundef %1, ptr noundef %2) #3 {
  %4 = alloca ptr, align 8
  %5 = alloca ptr, align 8
  %6 = alloca ptr, align 8
  store ptr %0, ptr %4, align 8, !tbaa !4
  store ptr %1, ptr %5, align 8, !tbaa !38
  store ptr %2, ptr %6, align 8, !tbaa !38
  %7 = load ptr, ptr %5, align 8, !tbaa !38
  %8 = load ptr, ptr %6, align 8, !tbaa !38
  call void @llvm.memcpy.p0.p0.i64(ptr align 8 %7, ptr align 8 %8, i64 8, i1 false), !tbaa.struct !70
  %9 = load ptr, ptr %4, align 8, !tbaa !4
  %10 = load ptr, ptr %5, align 8, !tbaa !38
  call void @checklivetv(ptr noundef %9, ptr noundef %10, ptr noundef @.str.4)
  ret void
}

; Function Attrs: alwaysinline nounwind uwtable
define internal ptr @buffer_tobufw(ptr noundef %0) #3 {
  %2 = alloca ptr, align 8
  %3 = alloca ptr, align 8
  store ptr %0, ptr %2, align 8, !tbaa !4
  call void @llvm.lifetime.start.p0(i64 8, ptr %3) #8
  %4 = load ptr, ptr %2, align 8, !tbaa !4
  %5 = call ptr @buffer_tobuf(ptr noundef %4)
  store ptr %5, ptr %3, align 8, !tbaa !9
  %6 = load ptr, ptr %2, align 8, !tbaa !4
  %7 = ptrtoint ptr %6 to i64
  %8 = load ptr, ptr %3, align 8, !tbaa !9
  %9 = getelementptr inbounds nuw %struct.SBufExt, ptr %8, i32 0, i32 3
  %10 = getelementptr inbounds nuw %struct.MRef, ptr %9, i32 0, i32 0
  %11 = load i64, ptr %10, align 8, !tbaa !24
  %12 = and i64 %11, 7
  %13 = or i64 %7, %12
  %14 = load ptr, ptr %3, align 8, !tbaa !9
  %15 = getelementptr inbounds nuw %struct.SBufExt, ptr %14, i32 0, i32 3
  %16 = getelementptr inbounds nuw %struct.MRef, ptr %15, i32 0, i32 0
  store i64 %13, ptr %16, align 8, !tbaa !24
  %17 = load ptr, ptr %3, align 8, !tbaa !9
  call void @llvm.lifetime.end.p0(i64 8, ptr %3) #8
  ret ptr %17
}

; Function Attrs: nounwind uwtable
define internal i32 @lj_cf_buffer_method_put(ptr noundef %0) #0 {
  %2 = alloca ptr, align 8
  %3 = alloca ptr, align 8
  %4 = alloca i64, align 8
  %5 = alloca i64, align 8
  %6 = alloca ptr, align 8
  %7 = alloca ptr, align 8
  %8 = alloca ptr, align 8
  store ptr %0, ptr %2, align 8, !tbaa !4
  call void @llvm.lifetime.start.p0(i64 8, ptr %3) #8
  %9 = load ptr, ptr %2, align 8, !tbaa !4
  %10 = call ptr @buffer_tobufw(ptr noundef %9)
  store ptr %10, ptr %3, align 8, !tbaa !9
  call void @llvm.lifetime.start.p0(i64 8, ptr %4) #8
  call void @llvm.lifetime.start.p0(i64 8, ptr %5) #8
  %11 = load ptr, ptr %2, align 8, !tbaa !4
  %12 = getelementptr inbounds nuw %struct.lua_State, ptr %11, i32 0, i32 8
  %13 = load ptr, ptr %12, align 8, !tbaa !18
  %14 = load ptr, ptr %2, align 8, !tbaa !4
  %15 = getelementptr inbounds nuw %struct.lua_State, ptr %14, i32 0, i32 7
  %16 = load ptr, ptr %15, align 8, !tbaa !11
  %17 = ptrtoint ptr %13 to i64
  %18 = ptrtoint ptr %16 to i64
  %19 = sub i64 %17, %18
  %20 = sdiv exact i64 %19, 8
  store i64 %20, ptr %5, align 8, !tbaa !37
  store i64 1, ptr %4, align 8, !tbaa !37
  br label %21

21:                                               ; preds = %156, %1
  %22 = load i64, ptr %4, align 8, !tbaa !37
  %23 = load i64, ptr %5, align 8, !tbaa !37
  %24 = icmp slt i64 %22, %23
  br i1 %24, label %25, label %159

25:                                               ; preds = %21
  call void @llvm.lifetime.start.p0(i64 8, ptr %6) #8
  %26 = load ptr, ptr %2, align 8, !tbaa !4
  %27 = getelementptr inbounds nuw %struct.lua_State, ptr %26, i32 0, i32 7
  %28 = load ptr, ptr %27, align 8, !tbaa !11
  %29 = load i64, ptr %4, align 8, !tbaa !37
  %30 = getelementptr inbounds %union.TValue, ptr %28, i64 %29
  store ptr %30, ptr %6, align 8, !tbaa !38
  call void @llvm.lifetime.start.p0(i64 8, ptr %7) #8
  store ptr null, ptr %7, align 8, !tbaa !38
  br label %31

31:                                               ; preds = %112, %25
  %32 = load ptr, ptr %6, align 8, !tbaa !38
  %33 = load i64, ptr %32, align 8, !tbaa !26
  %34 = ashr i64 %33, 47
  %35 = trunc i64 %34 to i32
  %36 = icmp eq i32 %35, -5
  br i1 %36, label %37, label %45

37:                                               ; preds = %31
  %38 = load ptr, ptr %3, align 8, !tbaa !9
  %39 = load ptr, ptr %6, align 8, !tbaa !38
  %40 = getelementptr inbounds nuw %struct.GCRef, ptr %39, i32 0, i32 0
  %41 = load i64, ptr %40, align 8, !tbaa !26
  %42 = and i64 %41, 140737488355327
  %43 = inttoptr i64 %42 to ptr
  %44 = call ptr @lj_buf_putstr(ptr noundef %38, ptr noundef %43)
  br label %155

45:                                               ; preds = %31
  %46 = load ptr, ptr %6, align 8, !tbaa !38
  %47 = load i64, ptr %46, align 8, !tbaa !26
  %48 = ashr i64 %47, 47
  %49 = trunc i64 %48 to i32
  %50 = icmp ult i32 %49, -14
  br i1 %50, label %51, label %56

51:                                               ; preds = %45
  %52 = load ptr, ptr %3, align 8, !tbaa !9
  %53 = load ptr, ptr %6, align 8, !tbaa !38
  %54 = load double, ptr %53, align 8, !tbaa !26
  %55 = call ptr @lj_strfmt_putfnum(ptr noundef %52, i32 noundef 251658293, double noundef %54)
  br label %154

56:                                               ; preds = %45
  %57 = load ptr, ptr %6, align 8, !tbaa !38
  %58 = load i64, ptr %57, align 8, !tbaa !26
  %59 = ashr i64 %58, 47
  %60 = trunc i64 %59 to i32
  %61 = icmp eq i32 %60, -13
  br i1 %61, label %62, label %103

62:                                               ; preds = %56
  %63 = load ptr, ptr %6, align 8, !tbaa !38
  %64 = getelementptr inbounds nuw %struct.GCRef, ptr %63, i32 0, i32 0
  %65 = load i64, ptr %64, align 8, !tbaa !26
  %66 = and i64 %65, 140737488355327
  %67 = inttoptr i64 %66 to ptr
  %68 = getelementptr inbounds nuw %struct.GCudata, ptr %67, i32 0, i32 3
  %69 = load i8, ptr %68, align 2, !tbaa !26
  %70 = zext i8 %69 to i32
  %71 = icmp eq i32 %70, 3
  br i1 %71, label %72, label %103

72:                                               ; preds = %62
  call void @llvm.lifetime.start.p0(i64 8, ptr %8) #8
  %73 = load ptr, ptr %6, align 8, !tbaa !38
  %74 = getelementptr inbounds nuw %struct.GCRef, ptr %73, i32 0, i32 0
  %75 = load i64, ptr %74, align 8, !tbaa !26
  %76 = and i64 %75, 140737488355327
  %77 = inttoptr i64 %76 to ptr
  %78 = getelementptr inbounds %struct.GCudata, ptr %77, i64 1
  store ptr %78, ptr %8, align 8, !tbaa !9
  %79 = load ptr, ptr %8, align 8, !tbaa !9
  %80 = load ptr, ptr %3, align 8, !tbaa !9
  %81 = icmp eq ptr %79, %80
  br i1 %81, label %82, label %87

82:                                               ; preds = %72
  %83 = load ptr, ptr %2, align 8, !tbaa !4
  %84 = load i64, ptr %4, align 8, !tbaa !37
  %85 = add nsw i64 %84, 1
  %86 = trunc i64 %85 to i32
  call void @lj_err_arg(ptr noundef %83, i32 noundef %86, i32 noundef 3762) #9
  unreachable

87:                                               ; preds = %72
  %88 = load ptr, ptr %3, align 8, !tbaa !9
  %89 = load ptr, ptr %8, align 8, !tbaa !9
  %90 = getelementptr inbounds nuw %struct.SBufExt, ptr %89, i32 0, i32 5
  %91 = load ptr, ptr %90, align 8, !tbaa !23
  %92 = load ptr, ptr %8, align 8, !tbaa !9
  %93 = getelementptr inbounds nuw %struct.SBufExt, ptr %92, i32 0, i32 0
  %94 = load ptr, ptr %93, align 8, !tbaa !20
  %95 = load ptr, ptr %8, align 8, !tbaa !9
  %96 = getelementptr inbounds nuw %struct.SBufExt, ptr %95, i32 0, i32 5
  %97 = load ptr, ptr %96, align 8, !tbaa !23
  %98 = ptrtoint ptr %94 to i64
  %99 = ptrtoint ptr %97 to i64
  %100 = sub i64 %98, %99
  %101 = trunc i64 %100 to i32
  %102 = call ptr @lj_buf_putmem(ptr noundef %88, ptr noundef %91, i32 noundef %101)
  call void @llvm.lifetime.end.p0(i64 8, ptr %8) #8
  br label %153

103:                                              ; preds = %62, %56
  %104 = load ptr, ptr %7, align 8, !tbaa !38
  %105 = icmp ne ptr %104, null
  br i1 %105, label %148, label %106

106:                                              ; preds = %103
  %107 = load ptr, ptr %2, align 8, !tbaa !4
  %108 = load ptr, ptr %6, align 8, !tbaa !38
  %109 = call ptr @lj_meta_lookup(ptr noundef %107, ptr noundef %108, i32 noundef 18)
  store ptr %109, ptr %7, align 8, !tbaa !38
  %110 = load i64, ptr %109, align 8, !tbaa !26
  %111 = icmp eq i64 %110, -1
  br i1 %111, label %148, label %112

112:                                              ; preds = %106
  %113 = load ptr, ptr %2, align 8, !tbaa !4
  %114 = load ptr, ptr %2, align 8, !tbaa !4
  %115 = getelementptr inbounds nuw %struct.lua_State, ptr %114, i32 0, i32 8
  %116 = load ptr, ptr %115, align 8, !tbaa !18
  %117 = getelementptr inbounds nuw %union.TValue, ptr %116, i32 1
  store ptr %117, ptr %115, align 8, !tbaa !18
  %118 = load ptr, ptr %7, align 8, !tbaa !38
  call void @copyTV(ptr noundef %113, ptr noundef %116, ptr noundef %118)
  %119 = load ptr, ptr %2, align 8, !tbaa !4
  %120 = load ptr, ptr %2, align 8, !tbaa !4
  %121 = getelementptr inbounds nuw %struct.lua_State, ptr %120, i32 0, i32 8
  %122 = load ptr, ptr %121, align 8, !tbaa !18
  %123 = getelementptr inbounds nuw %union.TValue, ptr %122, i32 1
  store ptr %123, ptr %121, align 8, !tbaa !18
  %124 = load ptr, ptr %6, align 8, !tbaa !38
  call void @copyTV(ptr noundef %119, ptr noundef %122, ptr noundef %124)
  %125 = load ptr, ptr %2, align 8, !tbaa !4
  call void @lua_call(ptr noundef %125, i32 noundef 1, i32 noundef 1)
  %126 = load ptr, ptr %2, align 8, !tbaa !4
  %127 = getelementptr inbounds nuw %struct.lua_State, ptr %126, i32 0, i32 7
  %128 = load ptr, ptr %127, align 8, !tbaa !11
  %129 = load i64, ptr %4, align 8, !tbaa !37
  %130 = getelementptr inbounds %union.TValue, ptr %128, i64 %129
  store ptr %130, ptr %6, align 8, !tbaa !38
  %131 = load ptr, ptr %2, align 8, !tbaa !4
  %132 = load ptr, ptr %2, align 8, !tbaa !4
  %133 = getelementptr inbounds nuw %struct.lua_State, ptr %132, i32 0, i32 7
  %134 = load ptr, ptr %133, align 8, !tbaa !11
  %135 = load i64, ptr %4, align 8, !tbaa !37
  %136 = getelementptr inbounds %union.TValue, ptr %134, i64 %135
  %137 = load ptr, ptr %2, align 8, !tbaa !4
  %138 = getelementptr inbounds nuw %struct.lua_State, ptr %137, i32 0, i32 8
  %139 = load ptr, ptr %138, align 8, !tbaa !18
  %140 = getelementptr inbounds %union.TValue, ptr %139, i64 -1
  call void @copyTV(ptr noundef %131, ptr noundef %136, ptr noundef %140)
  %141 = load ptr, ptr %2, align 8, !tbaa !4
  %142 = getelementptr inbounds nuw %struct.lua_State, ptr %141, i32 0, i32 7
  %143 = load ptr, ptr %142, align 8, !tbaa !11
  %144 = load i64, ptr %5, align 8, !tbaa !37
  %145 = getelementptr inbounds %union.TValue, ptr %143, i64 %144
  %146 = load ptr, ptr %2, align 8, !tbaa !4
  %147 = getelementptr inbounds nuw %struct.lua_State, ptr %146, i32 0, i32 8
  store ptr %145, ptr %147, align 8, !tbaa !18
  br label %31

148:                                              ; preds = %106, %103
  %149 = load ptr, ptr %2, align 8, !tbaa !4
  %150 = load i64, ptr %4, align 8, !tbaa !37
  %151 = add nsw i64 %150, 1
  %152 = trunc i64 %151 to i32
  call void @lj_err_argtype(ptr noundef %149, i32 noundef %152, ptr noundef @.str.3) #9
  unreachable

153:                                              ; preds = %87
  br label %154

154:                                              ; preds = %153, %51
  br label %155

155:                                              ; preds = %154, %37
  call void @llvm.lifetime.end.p0(i64 8, ptr %7) #8
  call void @llvm.lifetime.end.p0(i64 8, ptr %6) #8
  br label %156

156:                                              ; preds = %155
  %157 = load i64, ptr %4, align 8, !tbaa !37
  %158 = add nsw i64 %157, 1
  store i64 %158, ptr %4, align 8, !tbaa !37
  br label %21, !llvm.loop !39

159:                                              ; preds = %21
  %160 = load ptr, ptr %2, align 8, !tbaa !4
  %161 = getelementptr inbounds nuw %struct.lua_State, ptr %160, i32 0, i32 7
  %162 = load ptr, ptr %161, align 8, !tbaa !11
  %163 = getelementptr inbounds %union.TValue, ptr %162, i64 1
  %164 = load ptr, ptr %2, align 8, !tbaa !4
  %165 = getelementptr inbounds nuw %struct.lua_State, ptr %164, i32 0, i32 8
  store ptr %163, ptr %165, align 8, !tbaa !18
  %166 = load ptr, ptr %2, align 8, !tbaa !4
  %167 = getelementptr inbounds nuw %struct.lua_State, ptr %166, i32 0, i32 5
  %168 = getelementptr inbounds nuw %struct.MRef, ptr %167, i32 0, i32 0
  %169 = load i64, ptr %168, align 8, !tbaa !36
  %170 = inttoptr i64 %169 to ptr
  %171 = getelementptr inbounds nuw %struct.global_State, ptr %170, i32 0, i32 2
  %172 = getelementptr inbounds nuw %struct.GCState, ptr %171, i32 0, i32 0
  %173 = load i64, ptr %172, align 8, !tbaa !41
  %174 = load ptr, ptr %2, align 8, !tbaa !4
  %175 = getelementptr inbounds nuw %struct.lua_State, ptr %174, i32 0, i32 5
  %176 = getelementptr inbounds nuw %struct.MRef, ptr %175, i32 0, i32 0
  %177 = load i64, ptr %176, align 8, !tbaa !36
  %178 = inttoptr i64 %177 to ptr
  %179 = getelementptr inbounds nuw %struct.global_State, ptr %178, i32 0, i32 2
  %180 = getelementptr inbounds nuw %struct.GCState, ptr %179, i32 0, i32 1
  %181 = load i64, ptr %180, align 8, !tbaa !50
  %182 = icmp uge i64 %173, %181
  %183 = xor i1 %182, true
  %184 = xor i1 %183, true
  %185 = zext i1 %184 to i32
  %186 = sext i32 %185 to i64
  %187 = call i64 @llvm.expect.i64(i64 %186, i64 0)
  %188 = icmp ne i64 %187, 0
  br i1 %188, label %189, label %192

189:                                              ; preds = %159
  %190 = load ptr, ptr %2, align 8, !tbaa !4
  %191 = call i32 @lj_gc_step(ptr noundef %190)
  br label %192

192:                                              ; preds = %189, %159
  call void @llvm.lifetime.end.p0(i64 8, ptr %5) #8
  call void @llvm.lifetime.end.p0(i64 8, ptr %4) #8
  call void @llvm.lifetime.end.p0(i64 8, ptr %3) #8
  ret i32 1
}