; Function Attrs: nounwind uwtable
define internal noundef i32 @lj_cf_buffer_method_put(ptr noundef %0) #0 {
  %2 = getelementptr inbounds nuw i8, ptr %0, i64 32
  %3 = load ptr, ptr %2, align 8, !tbaa !4
  %4 = getelementptr inbounds nuw i8, ptr %0, i64 40
  %5 = load ptr, ptr %4, align 8, !tbaa !14
  %6 = icmp ult ptr %3, %5
  br i1 %6, label %7, label %16

7:                                                ; preds = %1
  %8 = load i64, ptr %3, align 8, !tbaa !15
  %.mask.i = and i64 %8, -140737488355328
  %9 = icmp eq i64 %.mask.i, -1829587348619264
  br i1 %9, label %10, label %16

10:                                               ; preds = %7
  %11 = and i64 %8, 140737488355327
  %12 = inttoptr i64 %11 to ptr
  %13 = getelementptr inbounds nuw i8, ptr %12, i64 10
  %14 = load i8, ptr %13, align 2, !tbaa !15
  %15 = icmp eq i8 %14, 3
  br i1 %15, label %buffer_tobuf.exit, label %16

16:                                               ; preds = %10, %7, %1
  tail call void @lj_err_argtype(ptr noundef nonnull %0, i32 noundef 1, ptr noundef nonnull @.str.2) #7
  unreachable

buffer_tobuf.exit:                                ; preds = %10
  %17 = getelementptr inbounds nuw i8, ptr %12, i64 48
  %18 = ptrtoint ptr %0 to i64
  %19 = getelementptr inbounds nuw i8, ptr %12, i64 72
  %20 = load i64, ptr %19, align 8, !tbaa !16
  %21 = and i64 %20, 7
  %22 = or i64 %21, %18
  store i64 %22, ptr %19, align 8, !tbaa !16
  %23 = ptrtoint ptr %5 to i64
  %24 = ptrtoint ptr %3 to i64
  %25 = sub i64 %23, %24
  %26 = ashr exact i64 %25, 3
  %27 = icmp sgt i64 %26, 1
  br i1 %27, label %.lr.ph71, label %._crit_edge72

.lr.ph71:                                         ; preds = %buffer_tobuf.exit, %90
  %.069 = phi i64 [ %91, %90 ], [ 1, %buffer_tobuf.exit ]
  %28 = load ptr, ptr %2, align 8, !tbaa !4
  %29 = getelementptr inbounds nuw %union.TValue, ptr %28, i64 %.069
  %30 = load i64, ptr %29, align 8
  %31 = ashr i64 %30, 47
  %32 = icmp eq i64 %31, -5
  br i1 %32, label %._crit_edge, label %.lr.ph

._crit_edge:                                      ; preds = %70, %.lr.ph71
  %.lcssa58 = phi i64 [ %30, %.lr.ph71 ], [ %84, %70 ]
  %33 = and i64 %.lcssa58, 140737488355327
  %34 = inttoptr i64 %33 to ptr
  %35 = tail call ptr @lj_buf_putstr(ptr noundef nonnull %17, ptr noundef %34) #6
  br label %90

.lr.ph:                                           ; preds = %.lr.ph71, %70
  %36 = phi i64 [ %85, %70 ], [ %31, %.lr.ph71 ]
  %37 = phi i64 [ %84, %70 ], [ %30, %.lr.ph71 ]
  %.05068 = phi i1 [ false, %70 ], [ true, %.lr.ph71 ]
  %.05167 = phi ptr [ %78, %70 ], [ %29, %.lr.ph71 ]
  %38 = icmp ult i64 %36, -14
  br i1 %38, label %39, label %42

39:                                               ; preds = %.lr.ph
  %40 = bitcast i64 %37 to double
  %41 = tail call ptr @lj_strfmt_putfnum(ptr noundef nonnull %17, i32 noundef 251658293, double noundef %40) #6
  br label %90

42:                                               ; preds = %.lr.ph
  %43 = icmp eq i64 %36, -13
  br i1 %43, label %44, label %65

44:                                               ; preds = %42
  %45 = and i64 %37, 140737488355327
  %46 = inttoptr i64 %45 to ptr
  %47 = getelementptr inbounds nuw i8, ptr %46, i64 10
  %48 = load i8, ptr %47, align 2, !tbaa !15
  %49 = icmp eq i8 %48, 3
  br i1 %49, label %50, label %65

50:                                               ; preds = %44
  %51 = icmp eq i64 %45, %11
  br i1 %51, label %52, label %55

52:                                               ; preds = %50
  %53 = trunc i64 %.069 to i32
  %54 = add i32 %53, 1
  tail call void @lj_err_arg(ptr noundef nonnull %0, i32 noundef %54, i32 noundef 3762) #7
  unreachable

55:                                               ; preds = %50
  %56 = getelementptr inbounds nuw i8, ptr %46, i64 48
  %57 = getelementptr inbounds nuw i8, ptr %46, i64 88
  %58 = load ptr, ptr %57, align 8, !tbaa !35
  %59 = load ptr, ptr %56, align 8, !tbaa !34
  %60 = ptrtoint ptr %59 to i64
  %61 = ptrtoint ptr %58 to i64
  %62 = sub i64 %60, %61
  %63 = trunc i64 %62 to i32
  %64 = tail call ptr @lj_buf_putmem(ptr noundef nonnull %17, ptr noundef %58, i32 noundef %63) #6
  br label %90

65:                                               ; preds = %44, %42
  br i1 %.05068, label %66, label %87

66:                                               ; preds = %65
  %67 = tail call ptr @lj_meta_lookup(ptr noundef nonnull %0, ptr noundef nonnull %.05167, i32 noundef 18) #6
  %68 = load i64, ptr %67, align 8, !tbaa !15
  %69 = icmp eq i64 %68, -1
  br i1 %69, label %87, label %70

70:                                               ; preds = %66
  %71 = load ptr, ptr %4, align 8, !tbaa !14
  %72 = getelementptr inbounds nuw i8, ptr %71, i64 8
  store ptr %72, ptr %4, align 8, !tbaa !14
  %73 = load i64, ptr %67, align 8, !tbaa !15
  store i64 %73, ptr %71, align 8, !tbaa !15
  %74 = load ptr, ptr %4, align 8, !tbaa !14
  %75 = getelementptr inbounds nuw i8, ptr %74, i64 8
  store ptr %75, ptr %4, align 8, !tbaa !14
  %76 = load i64, ptr %.05167, align 8, !tbaa !15
  store i64 %76, ptr %74, align 8, !tbaa !15
  tail call void @lua_call(ptr noundef nonnull %0, i32 noundef 1, i32 noundef 1) #6
  %77 = load ptr, ptr %2, align 8, !tbaa !4
  %78 = getelementptr inbounds nuw %union.TValue, ptr %77, i64 %.069
  %79 = load ptr, ptr %4, align 8, !tbaa !14
  %80 = getelementptr inbounds i8, ptr %79, i64 -8
  %81 = load i64, ptr %80, align 8, !tbaa !15
  store i64 %81, ptr %78, align 8, !tbaa !15
  %82 = load ptr, ptr %2, align 8, !tbaa !4
  %83 = getelementptr inbounds i8, ptr %82, i64 %25
  store ptr %83, ptr %4, align 8, !tbaa !14
  %84 = load i64, ptr %78, align 8
  %85 = ashr i64 %84, 47
  %86 = icmp eq i64 %85, -5
  br i1 %86, label %._crit_edge, label %.lr.ph

87:                                               ; preds = %66, %65
  %88 = trunc i64 %.069 to i32
  %89 = add i32 %88, 1
  tail call void @lj_err_argtype(ptr noundef %0, i32 noundef %89, ptr noundef nonnull @.str.3) #7
  unreachable

90:                                               ; preds = %39, %55, %._crit_edge
  %91 = add nuw nsw i64 %.069, 1
  %exitcond.not = icmp eq i64 %91, %26
  br i1 %exitcond.not, label %._crit_edge72.loopexit, label %.lr.ph71, !llvm.loop !49

._crit_edge72.loopexit:                           ; preds = %90
  %.pre = load ptr, ptr %2, align 8, !tbaa !4
  br label %._crit_edge72

._crit_edge72:                                    ; preds = %._crit_edge72.loopexit, %buffer_tobuf.exit
  %92 = phi ptr [ %.pre, %._crit_edge72.loopexit ], [ %3, %buffer_tobuf.exit ]
  %93 = getelementptr inbounds nuw i8, ptr %92, i64 8
  store ptr %93, ptr %4, align 8, !tbaa !14
  %94 = getelementptr inbounds nuw i8, ptr %0, i64 16
  %95 = load i64, ptr %94, align 8, !tbaa !19
  %96 = inttoptr i64 %95 to ptr
  %97 = getelementptr inbounds nuw i8, ptr %96, i64 16
  %98 = load i64, ptr %97, align 8, !tbaa !22
  %99 = getelementptr inbounds nuw i8, ptr %96, i64 24
  %100 = load i64, ptr %99, align 8, !tbaa !51
  %.not = icmp ult i64 %98, %100
  br i1 %.not, label %103, label %101, !prof !52

101:                                              ; preds = %._crit_edge72
  %102 = tail call i32 @lj_gc_step(ptr noundef nonnull %0) #6
  br label %103

103:                                              ; preds = %101, %._crit_edge72
  ret i32 1
}